Archive member included to satisfy reference by file (symbol)

/Users/mohammad/programming/MAMMD_OS/toolchain/i686-elf/lib/gcc/i686-elf/13.1.0/libgcc.a(_udivdi3.o)
                              /Users/mohammad/programming/assembly/bootloader/build/kernel/c/stdio.obj (__udivdi3)
/Users/mohammad/programming/MAMMD_OS/toolchain/i686-elf/lib/gcc/i686-elf/13.1.0/libgcc.a(_umoddi3.o)
                              /Users/mohammad/programming/assembly/bootloader/build/kernel/c/stdio.obj (__umoddi3)

Memory Configuration

Name             Origin             Length             Attributes
*default*        0x00000000         0xffffffff

Linker script and memory map

LOAD /Users/mohammad/programming/assembly/bootloader/build/kernel/asm/x86.obj
LOAD /Users/mohammad/programming/assembly/bootloader/build/kernel/c/main.obj
LOAD /Users/mohammad/programming/assembly/bootloader/build/kernel/c/stdio.obj
LOAD /Users/mohammad/programming/MAMMD_OS/toolchain/i686-elf/lib/gcc/i686-elf/13.1.0/libgcc.a
                0x00007e00                        . = 0x7e00

.entry          0x00007e00       0x19
 *(.entry)
 .entry         0x00007e00       0x19 /Users/mohammad/programming/assembly/bootloader/build/kernel/c/main.obj
                0x00007e00                kmain

.text           0x00007e20      0xb18
 *(.text)
 .text          0x00007e20       0x14 /Users/mohammad/programming/assembly/bootloader/build/kernel/asm/x86.obj
                0x00007e20                x86_outb
                0x00007e2b                x86_inb
 .text          0x00007e34        0x0 /Users/mohammad/programming/assembly/bootloader/build/kernel/c/main.obj
 .text          0x00007e34      0x7dc /Users/mohammad/programming/assembly/bootloader/build/kernel/c/stdio.obj
                0x00007e34                set_vid_mem
                0x00007e42                getCurPos
                0x00007eb1                setCurPos
                0x00007f38                cursor2VGA
                0x00007f7e                clearScr
                0x00007fe7                putc
                0x0000810f                puts
                0x0000813e                printf_unsigned
                0x000081e2                printf_signed
                0x0000823f                print_buffer
                0x000082d8                printf
 .text          0x00008610      0x11a /Users/mohammad/programming/MAMMD_OS/toolchain/i686-elf/lib/gcc/i686-elf/13.1.0/libgcc.a(_udivdi3.o)
                0x00008610                __udivdi3
 *fill*         0x0000872a        0x6 
 .text          0x00008730      0x136 /Users/mohammad/programming/MAMMD_OS/toolchain/i686-elf/lib/gcc/i686-elf/13.1.0/libgcc.a(_umoddi3.o)
                0x00008730                __umoddi3
 *(.rodata)
 .rodata        0x00008866       0x1d /Users/mohammad/programming/assembly/bootloader/build/kernel/c/main.obj
 *fill*         0x00008883        0x1 
 .rodata        0x00008884       0xb4 /Users/mohammad/programming/assembly/bootloader/build/kernel/c/stdio.obj
                0x00008884                g_HexChars

.eh_frame       0x00008938       0xd8
 .eh_frame      0x00008938       0x64 /Users/mohammad/programming/MAMMD_OS/toolchain/i686-elf/lib/gcc/i686-elf/13.1.0/libgcc.a(_udivdi3.o)
 .eh_frame      0x0000899c       0x74 /Users/mohammad/programming/MAMMD_OS/toolchain/i686-elf/lib/gcc/i686-elf/13.1.0/libgcc.a(_umoddi3.o)

.data           0x00008a10        0x4
 *(.data)
 .data          0x00008a10        0x0 /Users/mohammad/programming/assembly/bootloader/build/kernel/c/main.obj
 .data          0x00008a10        0x4 /Users/mohammad/programming/assembly/bootloader/build/kernel/c/stdio.obj
                0x00008a10                vid_mem
 .data          0x00008a14        0x0 /Users/mohammad/programming/MAMMD_OS/toolchain/i686-elf/lib/gcc/i686-elf/13.1.0/libgcc.a(_udivdi3.o)
 .data          0x00008a14        0x0 /Users/mohammad/programming/MAMMD_OS/toolchain/i686-elf/lib/gcc/i686-elf/13.1.0/libgcc.a(_umoddi3.o)

.bss            0x00008a14        0x0
 *(.bss)
 .bss           0x00008a14        0x0 /Users/mohammad/programming/assembly/bootloader/build/kernel/c/main.obj
 .bss           0x00008a14        0x0 /Users/mohammad/programming/assembly/bootloader/build/kernel/c/stdio.obj
 .bss           0x00008a14        0x0 /Users/mohammad/programming/MAMMD_OS/toolchain/i686-elf/lib/gcc/i686-elf/13.1.0/libgcc.a(_udivdi3.o)
 .bss           0x00008a14        0x0 /Users/mohammad/programming/MAMMD_OS/toolchain/i686-elf/lib/gcc/i686-elf/13.1.0/libgcc.a(_umoddi3.o)
OUTPUT(/Users/mohammad/programming/assembly/bootloader/build/kernel.bin binary)

.debug_info     0x00000000      0xb40
 .debug_info    0x00000000       0xa4 /Users/mohammad/programming/assembly/bootloader/build/kernel/c/main.obj
 .debug_info    0x000000a4      0x42d /Users/mohammad/programming/assembly/bootloader/build/kernel/c/stdio.obj
 .debug_info    0x000004d1      0x32c /Users/mohammad/programming/MAMMD_OS/toolchain/i686-elf/lib/gcc/i686-elf/13.1.0/libgcc.a(_udivdi3.o)
 .debug_info    0x000007fd      0x343 /Users/mohammad/programming/MAMMD_OS/toolchain/i686-elf/lib/gcc/i686-elf/13.1.0/libgcc.a(_umoddi3.o)

.debug_abbrev   0x00000000      0x4db
 .debug_abbrev  0x00000000       0x72 /Users/mohammad/programming/assembly/bootloader/build/kernel/c/main.obj
 .debug_abbrev  0x00000072      0x19d /Users/mohammad/programming/assembly/bootloader/build/kernel/c/stdio.obj
 .debug_abbrev  0x0000020f      0x15b /Users/mohammad/programming/MAMMD_OS/toolchain/i686-elf/lib/gcc/i686-elf/13.1.0/libgcc.a(_udivdi3.o)
 .debug_abbrev  0x0000036a      0x171 /Users/mohammad/programming/MAMMD_OS/toolchain/i686-elf/lib/gcc/i686-elf/13.1.0/libgcc.a(_umoddi3.o)

.debug_aranges  0x00000000       0x80
 .debug_aranges
                0x00000000       0x20 /Users/mohammad/programming/assembly/bootloader/build/kernel/c/main.obj
 .debug_aranges
                0x00000020       0x20 /Users/mohammad/programming/assembly/bootloader/build/kernel/c/stdio.obj
 .debug_aranges
                0x00000040       0x20 /Users/mohammad/programming/MAMMD_OS/toolchain/i686-elf/lib/gcc/i686-elf/13.1.0/libgcc.a(_udivdi3.o)
 .debug_aranges
                0x00000060       0x20 /Users/mohammad/programming/MAMMD_OS/toolchain/i686-elf/lib/gcc/i686-elf/13.1.0/libgcc.a(_umoddi3.o)

.debug_rnglists
                0x00000000       0x5c
 .debug_rnglists
                0x00000000       0x13 /Users/mohammad/programming/assembly/bootloader/build/kernel/c/main.obj
 .debug_rnglists
                0x00000013       0x2a /Users/mohammad/programming/MAMMD_OS/toolchain/i686-elf/lib/gcc/i686-elf/13.1.0/libgcc.a(_udivdi3.o)
 .debug_rnglists
                0x0000003d       0x1f /Users/mohammad/programming/MAMMD_OS/toolchain/i686-elf/lib/gcc/i686-elf/13.1.0/libgcc.a(_umoddi3.o)

.debug_line     0x00000000      0x6b8
 .debug_line    0x00000000       0x50 /Users/mohammad/programming/assembly/bootloader/build/kernel/c/main.obj
 .debug_line    0x00000050      0x317 /Users/mohammad/programming/assembly/bootloader/build/kernel/c/stdio.obj
 .debug_line    0x00000367      0x180 /Users/mohammad/programming/MAMMD_OS/toolchain/i686-elf/lib/gcc/i686-elf/13.1.0/libgcc.a(_udivdi3.o)
 .debug_line    0x000004e7      0x1d1 /Users/mohammad/programming/MAMMD_OS/toolchain/i686-elf/lib/gcc/i686-elf/13.1.0/libgcc.a(_umoddi3.o)

.debug_str      0x00000000      0x6ab
 .debug_str     0x00000000       0xe1 /Users/mohammad/programming/assembly/bootloader/build/kernel/c/main.obj
 .debug_str     0x000000e1      0x204 /Users/mohammad/programming/assembly/bootloader/build/kernel/c/stdio.obj
 .debug_str     0x000002e5      0x1e3 /Users/mohammad/programming/MAMMD_OS/toolchain/i686-elf/lib/gcc/i686-elf/13.1.0/libgcc.a(_udivdi3.o)
 .debug_str     0x000004c8      0x1e3 /Users/mohammad/programming/MAMMD_OS/toolchain/i686-elf/lib/gcc/i686-elf/13.1.0/libgcc.a(_umoddi3.o)

.debug_line_str
                0x00000000      0x379
 .debug_line_str
                0x00000000       0x93 /Users/mohammad/programming/assembly/bootloader/build/kernel/c/main.obj
 .debug_line_str
                0x00000093      0x102 /Users/mohammad/programming/assembly/bootloader/build/kernel/c/stdio.obj
 .debug_line_str
                0x00000195       0xf2 /Users/mohammad/programming/MAMMD_OS/toolchain/i686-elf/lib/gcc/i686-elf/13.1.0/libgcc.a(_udivdi3.o)
 .debug_line_str
                0x00000287       0xf2 /Users/mohammad/programming/MAMMD_OS/toolchain/i686-elf/lib/gcc/i686-elf/13.1.0/libgcc.a(_umoddi3.o)

.comment        0x00000000       0x4c
 .comment       0x00000000       0x13 /Users/mohammad/programming/assembly/bootloader/build/kernel/c/main.obj
 .comment       0x00000013       0x13 /Users/mohammad/programming/assembly/bootloader/build/kernel/c/stdio.obj
 .comment       0x00000026       0x13 /Users/mohammad/programming/MAMMD_OS/toolchain/i686-elf/lib/gcc/i686-elf/13.1.0/libgcc.a(_udivdi3.o)
 .comment       0x00000039       0x13 /Users/mohammad/programming/MAMMD_OS/toolchain/i686-elf/lib/gcc/i686-elf/13.1.0/libgcc.a(_umoddi3.o)

.debug_frame    0x00000000      0x1a8
 .debug_frame   0x00000000       0x2c /Users/mohammad/programming/assembly/bootloader/build/kernel/c/main.obj
 .debug_frame   0x0000002c      0x17c /Users/mohammad/programming/assembly/bootloader/build/kernel/c/stdio.obj

.debug_loclists
                0x00000000      0x978
 .debug_loclists
                0x00000000      0x50c /Users/mohammad/programming/MAMMD_OS/toolchain/i686-elf/lib/gcc/i686-elf/13.1.0/libgcc.a(_udivdi3.o)
 .debug_loclists
                0x0000050c      0x46c /Users/mohammad/programming/MAMMD_OS/toolchain/i686-elf/lib/gcc/i686-elf/13.1.0/libgcc.a(_umoddi3.o)
